target datalayout = "e-m:e-p270:32:32-p271:32:32-p272:64:64-i64:64-i128:128-f80:128-n8:16:32:64-S128"
target triple = "x86_64-pc-linux-gnu"

%struct.AVFilterPad = type { ptr, i32, i32, %union.anon, ptr, ptr, ptr }
%union.anon = type { ptr }
%struct.AVFilterContext = type { ptr, ptr, ptr, ptr, ptr, i32, ptr, ptr, i32, ptr, ptr, i32, i32, ptr, ptr, ptr, ptr, i32, ptr, i32, i32 }
%struct.RemapContext = type { ptr, i32, i32, i32, i32, [4 x i8], [4 x i32], %struct.FFFrameSync, ptr }
%struct.FFFrameSync = type { ptr, ptr, i32, %struct.AVRational, i64, ptr, ptr, i32, i32, i8, i8, ptr, i32, i32, i32, i32 }
%struct.AVRational = type { i32, i32 }
%struct.AVFilterFormatsConfig = type { ptr, ptr, ptr, ptr, ptr }
%struct.AVFilterLink = type { ptr, ptr, ptr, ptr, i32, i32, i32, i32, %struct.AVRational, i32, i32, i32, %struct.AVChannelLayout, %struct.AVRational, ptr, i32, %struct.AVFilterFormatsConfig, %struct.AVFilterFormatsConfig }
%struct.AVChannelLayout = type { i32, i32, %union.anon.1, ptr }
%union.anon.1 = type { i64 }
%struct.FilterLink = type { %struct.AVFilterLink, ptr, i64, i64, i32, i32, i64, i64, i64, i64, %struct.AVRational, ptr }
%struct.FFFrameSyncIn = type { i32, i32, %struct.AVRational, ptr, ptr, i64, i64, i8, i8, i32, i32 }

@.str.6 = private unnamed_addr constant [116 x i8] c"Second input link %s parameters (size %dx%d) do not match the corresponding third input link %s parameters (%dx%d)\0A\00", align 1

; Function Attrs: inlinehint nounwind uwtable
define internal ptr @ff_filter_link(ptr noundef %0) #4 {
  %2 = alloca ptr, align 8
  store ptr %0, ptr %2, align 8, !tbaa !37
  %3 = load ptr, ptr %2, align 8, !tbaa !37
  ret ptr %3
}

; Function Attrs: nounwind uwtable
define internal i32 @config_output(ptr noundef %0) #1 {
  %2 = alloca i32, align 4
  %3 = alloca ptr, align 8
  %4 = alloca ptr, align 8
  %5 = alloca ptr, align 8
  %6 = alloca ptr, align 8
  %7 = alloca ptr, align 8
  %8 = alloca ptr, align 8
  %9 = alloca ptr, align 8
  %10 = alloca ptr, align 8
  %11 = alloca ptr, align 8
  %12 = alloca i32, align 4
  %13 = alloca i32, align 4
  store ptr %0, ptr %3, align 8, !tbaa !37
  call void @llvm.lifetime.start.p0(i64 8, ptr %4) #8
  %14 = load ptr, ptr %3, align 8, !tbaa !37
  %15 = getelementptr inbounds nuw %struct.AVFilterLink, ptr %14, i32 0, i32 0
  %16 = load ptr, ptr %15, align 8, !tbaa !95
  store ptr %16, ptr %4, align 8, !tbaa !4
  call void @llvm.lifetime.start.p0(i64 8, ptr %5) #8
  %17 = load ptr, ptr %4, align 8, !tbaa !4
  %18 = getelementptr inbounds nuw %struct.AVFilterContext, ptr %17, i32 0, i32 9
  %19 = load ptr, ptr %18, align 8, !tbaa !9
  store ptr %19, ptr %5, align 8, !tbaa !22
  call void @llvm.lifetime.start.p0(i64 8, ptr %6) #8
  %20 = load ptr, ptr %4, align 8, !tbaa !4
  %21 = getelementptr inbounds nuw %struct.AVFilterContext, ptr %20, i32 0, i32 4
  %22 = load ptr, ptr %21, align 8, !tbaa !96
  %23 = getelementptr inbounds ptr, ptr %22, i64 0
  %24 = load ptr, ptr %23, align 8, !tbaa !37
  store ptr %24, ptr %6, align 8, !tbaa !37
  call void @llvm.lifetime.start.p0(i64 8, ptr %7) #8
  %25 = load ptr, ptr %4, align 8, !tbaa !4
  %26 = getelementptr inbounds nuw %struct.AVFilterContext, ptr %25, i32 0, i32 4
  %27 = load ptr, ptr %26, align 8, !tbaa !96
  %28 = getelementptr inbounds ptr, ptr %27, i64 1
  %29 = load ptr, ptr %28, align 8, !tbaa !37
  store ptr %29, ptr %7, align 8, !tbaa !37
  call void @llvm.lifetime.start.p0(i64 8, ptr %8) #8
  %30 = load ptr, ptr %4, align 8, !tbaa !4
  %31 = getelementptr inbounds nuw %struct.AVFilterContext, ptr %30, i32 0, i32 4
  %32 = load ptr, ptr %31, align 8, !tbaa !96
  %33 = getelementptr inbounds ptr, ptr %32, i64 2
  %34 = load ptr, ptr %33, align 8, !tbaa !37
  store ptr %34, ptr %8, align 8, !tbaa !37
  call void @llvm.lifetime.start.p0(i64 8, ptr %9) #8
  %35 = load ptr, ptr %6, align 8, !tbaa !37
  %36 = call ptr @ff_filter_link(ptr noundef %35)
  store ptr %36, ptr %9, align 8, !tbaa !97
  call void @llvm.lifetime.start.p0(i64 8, ptr %10) #8
  %37 = load ptr, ptr %3, align 8, !tbaa !37
  %38 = call ptr @ff_filter_link(ptr noundef %37)
  store ptr %38, ptr %10, align 8, !tbaa !97
  call void @llvm.lifetime.start.p0(i64 8, ptr %11) #8
  call void @llvm.lifetime.start.p0(i64 4, ptr %12) #8
  %39 = load ptr, ptr %7, align 8, !tbaa !37
  %40 = getelementptr inbounds nuw %struct.AVFilterLink, ptr %39, i32 0, i32 6
  %41 = load i32, ptr %40, align 8, !tbaa !99
  %42 = load ptr, ptr %8, align 8, !tbaa !37
  %43 = getelementptr inbounds nuw %struct.AVFilterLink, ptr %42, i32 0, i32 6
  %44 = load i32, ptr %43, align 8, !tbaa !99
  %45 = icmp ne i32 %41, %44
  br i1 %45, label %54, label %46

46:                                               ; preds = %1
  %47 = load ptr, ptr %7, align 8, !tbaa !37
  %48 = getelementptr inbounds nuw %struct.AVFilterLink, ptr %47, i32 0, i32 7
  %49 = load i32, ptr %48, align 4, !tbaa !100
  %50 = load ptr, ptr %8, align 8, !tbaa !37
  %51 = getelementptr inbounds nuw %struct.AVFilterLink, ptr %50, i32 0, i32 7
  %52 = load i32, ptr %51, align 4, !tbaa !100
  %53 = icmp ne i32 %49, %52
  br i1 %53, label %54, label %80

54:                                               ; preds = %46, %1
  %55 = load ptr, ptr %4, align 8, !tbaa !4
  %56 = load ptr, ptr %4, align 8, !tbaa !4
  %57 = getelementptr inbounds nuw %struct.AVFilterContext, ptr %56, i32 0, i32 3
  %58 = load ptr, ptr %57, align 8, !tbaa !101
  %59 = getelementptr inbounds %struct.AVFilterPad, ptr %58, i64 1
  %60 = getelementptr inbounds nuw %struct.AVFilterPad, ptr %59, i32 0, i32 0
  %61 = load ptr, ptr %60, align 8, !tbaa !102
  %62 = load ptr, ptr %7, align 8, !tbaa !37
  %63 = getelementptr inbounds nuw %struct.AVFilterLink, ptr %62, i32 0, i32 6
  %64 = load i32, ptr %63, align 8, !tbaa !99
  %65 = load ptr, ptr %7, align 8, !tbaa !37
  %66 = getelementptr inbounds nuw %struct.AVFilterLink, ptr %65, i32 0, i32 7
  %67 = load i32, ptr %66, align 4, !tbaa !100
  %68 = load ptr, ptr %4, align 8, !tbaa !4
  %69 = getelementptr inbounds nuw %struct.AVFilterContext, ptr %68, i32 0, i32 3
  %70 = load ptr, ptr %69, align 8, !tbaa !101
  %71 = getelementptr inbounds %struct.AVFilterPad, ptr %70, i64 2
  %72 = getelementptr inbounds nuw %struct.AVFilterPad, ptr %71, i32 0, i32 0
  %73 = load ptr, ptr %72, align 8, !tbaa !102
  %74 = load ptr, ptr %8, align 8, !tbaa !37
  %75 = getelementptr inbounds nuw %struct.AVFilterLink, ptr %74, i32 0, i32 6
  %76 = load i32, ptr %75, align 8, !tbaa !99
  %77 = load ptr, ptr %8, align 8, !tbaa !37
  %78 = getelementptr inbounds nuw %struct.AVFilterLink, ptr %77, i32 0, i32 7
  %79 = load i32, ptr %78, align 4, !tbaa !100
  call void (ptr, i32, ptr, ...) @av_log(ptr noundef %55, i32 noundef 16, ptr noundef @.str.6, ptr noundef %61, i32 noundef %64, i32 noundef %67, ptr noundef %73, i32 noundef %76, i32 noundef %79)
  store i32 -22, ptr %2, align 4
  store i32 1, ptr %13, align 4
  br label %170

80:                                               ; preds = %46
  %81 = load ptr, ptr %7, align 8, !tbaa !37
  %82 = getelementptr inbounds nuw %struct.AVFilterLink, ptr %81, i32 0, i32 6
  %83 = load i32, ptr %82, align 8, !tbaa !99
  %84 = load ptr, ptr %3, align 8, !tbaa !37
  %85 = getelementptr inbounds nuw %struct.AVFilterLink, ptr %84, i32 0, i32 6
  store i32 %83, ptr %85, align 8, !tbaa !99
  %86 = load ptr, ptr %7, align 8, !tbaa !37
  %87 = getelementptr inbounds nuw %struct.AVFilterLink, ptr %86, i32 0, i32 7
  %88 = load i32, ptr %87, align 4, !tbaa !100
  %89 = load ptr, ptr %3, align 8, !tbaa !37
  %90 = getelementptr inbounds nuw %struct.AVFilterLink, ptr %89, i32 0, i32 7
  store i32 %88, ptr %90, align 4, !tbaa !100
  %91 = load ptr, ptr %3, align 8, !tbaa !37
  %92 = getelementptr inbounds nuw %struct.AVFilterLink, ptr %91, i32 0, i32 8
  %93 = load ptr, ptr %6, align 8, !tbaa !37
  %94 = getelementptr inbounds nuw %struct.AVFilterLink, ptr %93, i32 0, i32 8
  call void @llvm.memcpy.p0.p0.i64(ptr align 8 %92, ptr align 8 %94, i64 8, i1 false), !tbaa.struct !104
  %95 = load ptr, ptr %10, align 8, !tbaa !97
  %96 = getelementptr inbounds nuw %struct.FilterLink, ptr %95, i32 0, i32 10
  %97 = load ptr, ptr %9, align 8, !tbaa !97
  %98 = getelementptr inbounds nuw %struct.FilterLink, ptr %97, i32 0, i32 10
  call void @llvm.memcpy.p0.p0.i64(ptr align 8 %96, ptr align 8 %98, i64 8, i1 false), !tbaa.struct !104
  %99 = load ptr, ptr %5, align 8, !tbaa !22
  %100 = getelementptr inbounds nuw %struct.RemapContext, ptr %99, i32 0, i32 7
  %101 = load ptr, ptr %4, align 8, !tbaa !4
  %102 = call i32 @ff_framesync_init(ptr noundef %100, ptr noundef %101, i32 noundef 3)
  store i32 %102, ptr %12, align 4, !tbaa !36
  %103 = load i32, ptr %12, align 4, !tbaa !36
  %104 = icmp slt i32 %103, 0
  br i1 %104, label %105, label %107

105:                                              ; preds = %80
  %106 = load i32, ptr %12, align 4, !tbaa !36
  store i32 %106, ptr %2, align 4
  store i32 1, ptr %13, align 4
  br label %170

107:                                              ; preds = %80
  %108 = load ptr, ptr %5, align 8, !tbaa !22
  %109 = getelementptr inbounds nuw %struct.RemapContext, ptr %108, i32 0, i32 7
  %110 = getelementptr inbounds nuw %struct.FFFrameSync, ptr %109, i32 0, i32 11
  %111 = load ptr, ptr %110, align 8, !tbaa !105
  store ptr %111, ptr %11, align 8, !tbaa !106
  %112 = load ptr, ptr %11, align 8, !tbaa !106
  %113 = getelementptr inbounds %struct.FFFrameSyncIn, ptr %112, i64 0
  %114 = getelementptr inbounds nuw %struct.FFFrameSyncIn, ptr %113, i32 0, i32 2
  %115 = load ptr, ptr %6, align 8, !tbaa !37
  %116 = getelementptr inbounds nuw %struct.AVFilterLink, ptr %115, i32 0, i32 13
  call void @llvm.memcpy.p0.p0.i64(ptr align 8 %114, ptr align 8 %116, i64 8, i1 false), !tbaa.struct !104
  %117 = load ptr, ptr %11, align 8, !tbaa !106
  %118 = getelementptr inbounds %struct.FFFrameSyncIn, ptr %117, i64 1
  %119 = getelementptr inbounds nuw %struct.FFFrameSyncIn, ptr %118, i32 0, i32 2
  %120 = load ptr, ptr %7, align 8, !tbaa !37
  %121 = getelementptr inbounds nuw %struct.AVFilterLink, ptr %120, i32 0, i32 13
  call void @llvm.memcpy.p0.p0.i64(ptr align 8 %119, ptr align 8 %121, i64 8, i1 false), !tbaa.struct !104
  %122 = load ptr, ptr %11, align 8, !tbaa !106
  %123 = getelementptr inbounds %struct.FFFrameSyncIn, ptr %122, i64 2
  %124 = getelementptr inbounds nuw %struct.FFFrameSyncIn, ptr %123, i32 0, i32 2
  %125 = load ptr, ptr %8, align 8, !tbaa !37
  %126 = getelementptr inbounds nuw %struct.AVFilterLink, ptr %125, i32 0, i32 13
  call void @llvm.memcpy.p0.p0.i64(ptr align 8 %124, ptr align 8 %126, i64 8, i1 false), !tbaa.struct !104
  %127 = load ptr, ptr %11, align 8, !tbaa !106
  %128 = getelementptr inbounds %struct.FFFrameSyncIn, ptr %127, i64 0
  %129 = getelementptr inbounds nuw %struct.FFFrameSyncIn, ptr %128, i32 0, i32 9
  store i32 2, ptr %129, align 4, !tbaa !107
  %130 = load ptr, ptr %11, align 8, !tbaa !106
  %131 = getelementptr inbounds %struct.FFFrameSyncIn, ptr %130, i64 0
  %132 = getelementptr inbounds nuw %struct.FFFrameSyncIn, ptr %131, i32 0, i32 0
  store i32 0, ptr %132, align 8, !tbaa !109
  %133 = load ptr, ptr %11, align 8, !tbaa !106
  %134 = getelementptr inbounds %struct.FFFrameSyncIn, ptr %133, i64 0
  %135 = getelementptr inbounds nuw %struct.FFFrameSyncIn, ptr %134, i32 0, i32 1
  store i32 0, ptr %135, align 4, !tbaa !110
  %136 = load ptr, ptr %11, align 8, !tbaa !106
  %137 = getelementptr inbounds %struct.FFFrameSyncIn, ptr %136, i64 1
  %138 = getelementptr inbounds nuw %struct.FFFrameSyncIn, ptr %137, i32 0, i32 9
  store i32 1, ptr %138, align 4, !tbaa !107
  %139 = load ptr, ptr %11, align 8, !tbaa !106
  %140 = getelementptr inbounds %struct.FFFrameSyncIn, ptr %139, i64 1
  %141 = getelementptr inbounds nuw %struct.FFFrameSyncIn, ptr %140, i32 0, i32 0
  store i32 1, ptr %141, align 8, !tbaa !109
  %142 = load ptr, ptr %11, align 8, !tbaa !106
  %143 = getelementptr inbounds %struct.FFFrameSyncIn, ptr %142, i64 1
  %144 = getelementptr inbounds nuw %struct.FFFrameSyncIn, ptr %143, i32 0, i32 1
  store i32 2, ptr %144, align 4, !tbaa !110
  %145 = load ptr, ptr %11, align 8, !tbaa !106
  %146 = getelementptr inbounds %struct.FFFrameSyncIn, ptr %145, i64 2
  %147 = getelementptr inbounds nuw %struct.FFFrameSyncIn, ptr %146, i32 0, i32 9
  store i32 1, ptr %147, align 4, !tbaa !107
  %148 = load ptr, ptr %11, align 8, !tbaa !106
  %149 = getelementptr inbounds %struct.FFFrameSyncIn, ptr %148, i64 2
  %150 = getelementptr inbounds nuw %struct.FFFrameSyncIn, ptr %149, i32 0, i32 0
  store i32 1, ptr %150, align 8, !tbaa !109
  %151 = load ptr, ptr %11, align 8, !tbaa !106
  %152 = getelementptr inbounds %struct.FFFrameSyncIn, ptr %151, i64 2
  %153 = getelementptr inbounds nuw %struct.FFFrameSyncIn, ptr %152, i32 0, i32 1
  store i32 2, ptr %153, align 4, !tbaa !110
  %154 = load ptr, ptr %5, align 8, !tbaa !22
  %155 = load ptr, ptr %5, align 8, !tbaa !22
  %156 = getelementptr inbounds nuw %struct.RemapContext, ptr %155, i32 0, i32 7
  %157 = getelementptr inbounds nuw %struct.FFFrameSync, ptr %156, i32 0, i32 6
  store ptr %154, ptr %157, align 8, !tbaa !111
  %158 = load ptr, ptr %5, align 8, !tbaa !22
  %159 = getelementptr inbounds nuw %struct.RemapContext, ptr %158, i32 0, i32 7
  %160 = getelementptr inbounds nuw %struct.FFFrameSync, ptr %159, i32 0, i32 5
  store ptr @process_frame, ptr %160, align 8, !tbaa !112
  %161 = load ptr, ptr %5, align 8, !tbaa !22
  %162 = getelementptr inbounds nuw %struct.RemapContext, ptr %161, i32 0, i32 7
  %163 = call i32 @ff_framesync_configure(ptr noundef %162)
  store i32 %163, ptr %12, align 4, !tbaa !36
  %164 = load ptr, ptr %3, align 8, !tbaa !37
  %165 = getelementptr inbounds nuw %struct.AVFilterLink, ptr %164, i32 0, i32 13
  %166 = load ptr, ptr %5, align 8, !tbaa !22
  %167 = getelementptr inbounds nuw %struct.RemapContext, ptr %166, i32 0, i32 7
  %168 = getelementptr inbounds nuw %struct.FFFrameSync, ptr %167, i32 0, i32 3
  call void @llvm.memcpy.p0.p0.i64(ptr align 8 %165, ptr align 4 %168, i64 8, i1 false), !tbaa.struct !104
  %169 = load i32, ptr %12, align 4, !tbaa !36
  store i32 %169, ptr %2, align 4
  store i32 1, ptr %13, align 4
  br label %170

170:                                              ; preds = %107, %105, %54
  call void @llvm.lifetime.end.p0(i64 4, ptr %12) #8
  call void @llvm.lifetime.end.p0(i64 8, ptr %11) #8
  call void @llvm.lifetime.end.p0(i64 8, ptr %10) #8
  call void @llvm.lifetime.end.p0(i64 8, ptr %9) #8
  call void @llvm.lifetime.end.p0(i64 8, ptr %8) #8
  call void @llvm.lifetime.end.p0(i64 8, ptr %7) #8
  call void @llvm.lifetime.end.p0(i64 8, ptr %6) #8
  call void @llvm.lifetime.end.p0(i64 8, ptr %5) #8
  call void @llvm.lifetime.end.p0(i64 8, ptr %4) #8
  %171 = load i32, ptr %2, align 4
  ret i32 %171
}