; Function Attrs: nounwind uwtable
define internal i32 @config_output(ptr noundef captures(none) %0) #1 {
  %2 = load ptr, ptr %0, align 8, !tbaa !80
  %3 = getelementptr inbounds nuw i8, ptr %2, i64 72
  %4 = load ptr, ptr %3, align 8, !tbaa !4
  %5 = getelementptr inbounds nuw i8, ptr %2, i64 32
  %6 = load ptr, ptr %5, align 8, !tbaa !81
  %7 = load ptr, ptr %6, align 8, !tbaa !82
  %8 = getelementptr inbounds nuw i8, ptr %6, i64 8
  %9 = load ptr, ptr %8, align 8, !tbaa !82
  %10 = getelementptr inbounds nuw i8, ptr %6, i64 16
  %11 = load ptr, ptr %10, align 8, !tbaa !82
  %12 = getelementptr inbounds nuw i8, ptr %9, i64 40
  %13 = load i32, ptr %12, align 8, !tbaa !84
  %14 = getelementptr inbounds nuw i8, ptr %11, i64 40
  %15 = load i32, ptr %14, align 8, !tbaa !84
  %.not = icmp eq i32 %13, %15
  %16 = getelementptr inbounds nuw i8, ptr %9, i64 44
  %17 = load i32, ptr %16, align 4, !tbaa !85
  %18 = getelementptr inbounds nuw i8, ptr %11, i64 44
  %19 = load i32, ptr %18, align 4, !tbaa !85
  %.not55 = icmp eq i32 %17, %19
  %or.cond = select i1 %.not, i1 %.not55, i1 false
  br i1 %or.cond, label %26, label %._crit_edge

._crit_edge:                                      ; preds = %1
  %20 = getelementptr inbounds nuw i8, ptr %2, i64 24
  %21 = load ptr, ptr %20, align 8, !tbaa !86
  %22 = getelementptr inbounds nuw i8, ptr %21, i64 48
  %23 = load ptr, ptr %22, align 8, !tbaa !87
  %24 = getelementptr inbounds nuw i8, ptr %21, i64 96
  %25 = load ptr, ptr %24, align 8, !tbaa !87
  tail call void (ptr, i32, ptr, ...) @av_log(ptr noundef nonnull %2, i32 noundef 16, ptr noundef nonnull @.str.6, ptr noundef %23, i32 noundef %13, i32 noundef %17, ptr noundef %25, i32 noundef %15, i32 noundef %19) #8
  br label %64

26:                                               ; preds = %1
  %27 = getelementptr inbounds nuw i8, ptr %0, i64 40
  store i32 %13, ptr %27, align 8, !tbaa !84
  %28 = getelementptr inbounds nuw i8, ptr %0, i64 44
  store i32 %17, ptr %28, align 4, !tbaa !85
  %29 = getelementptr inbounds nuw i8, ptr %0, i64 48
  %30 = getelementptr inbounds nuw i8, ptr %7, i64 48
  %31 = load i64, ptr %30, align 8
  store i64 %31, ptr %29, align 8
  %32 = getelementptr inbounds nuw i8, ptr %0, i64 264
  %33 = getelementptr inbounds nuw i8, ptr %7, i64 264
  %34 = load i64, ptr %33, align 8
  store i64 %34, ptr %32, align 8
  %35 = getelementptr inbounds nuw i8, ptr %4, i64 48
  %36 = tail call i32 @ff_framesync_init(ptr noundef nonnull %35, ptr noundef nonnull %2, i32 noundef 3) #8
  %37 = icmp slt i32 %36, 0
  br i1 %37, label %64, label %38

38:                                               ; preds = %26
  %39 = getelementptr inbounds nuw i8, ptr %4, i64 120
  %40 = load ptr, ptr %39, align 8, !tbaa !89
  %41 = getelementptr inbounds nuw i8, ptr %40, i64 8
  %42 = getelementptr inbounds nuw i8, ptr %7, i64 96
  %43 = load i64, ptr %42, align 8
  store i64 %43, ptr %41, align 8
  %44 = getelementptr inbounds nuw i8, ptr %40, i64 64
  %45 = getelementptr inbounds nuw i8, ptr %40, i64 72
  %46 = getelementptr inbounds nuw i8, ptr %9, i64 96
  %47 = load i64, ptr %46, align 8
  store i64 %47, ptr %45, align 8
  %48 = getelementptr inbounds nuw i8, ptr %40, i64 128
  %49 = getelementptr inbounds nuw i8, ptr %40, i64 136
  %50 = getelementptr inbounds nuw i8, ptr %11, i64 96
  %51 = load i64, ptr %50, align 8
  store i64 %51, ptr %49, align 8
  %52 = getelementptr inbounds nuw i8, ptr %40, i64 52
  store i32 2, ptr %52, align 4, !tbaa !90
  store i32 0, ptr %40, align 8, !tbaa !92
  %53 = getelementptr inbounds nuw i8, ptr %40, i64 4
  store i32 0, ptr %53, align 4, !tbaa !93
  %54 = getelementptr inbounds nuw i8, ptr %40, i64 116
  store i32 1, ptr %54, align 4, !tbaa !90
  store i32 1, ptr %44, align 8, !tbaa !92
  %55 = getelementptr inbounds nuw i8, ptr %40, i64 68
  store i32 2, ptr %55, align 4, !tbaa !93
  %56 = getelementptr inbounds nuw i8, ptr %40, i64 180
  store i32 1, ptr %56, align 4, !tbaa !90
  store i32 1, ptr %48, align 8, !tbaa !92
  %57 = getelementptr inbounds nuw i8, ptr %40, i64 132
  store i32 2, ptr %57, align 4, !tbaa !93
  %58 = getelementptr inbounds nuw i8, ptr %4, i64 96
  store ptr %4, ptr %58, align 8, !tbaa !94
  %59 = getelementptr inbounds nuw i8, ptr %4, i64 88
  store ptr @process_frame, ptr %59, align 8, !tbaa !95
  %60 = tail call i32 @ff_framesync_configure(ptr noundef nonnull %35) #8
  %61 = getelementptr inbounds nuw i8, ptr %0, i64 96
  %62 = getelementptr inbounds nuw i8, ptr %4, i64 68
  %63 = load i64, ptr %62, align 4
  store i64 %63, ptr %61, align 8
  br label %64

64:                                               ; preds = %26, %38, %._crit_edge
  %.0 = phi i32 [ -22, %._crit_edge ], [ %60, %38 ], [ %36, %26 ]
  ret i32 %.0
}